; Function Attrs: mustprogress nofree norecurse nosync nounwind willreturn memory(argmem: read) uwtable
define internal range(i32 0, 2) i32 @_purge_het_job_filter(ptr noundef readonly captures(none) %0, ptr noundef readonly captures(none) %1) #13 {
  %3 = getelementptr inbounds nuw i8, ptr %0, i64 360
  %4 = load i32, ptr %3, align 8
  %5 = getelementptr inbounds nuw i8, ptr %1, i64 360
  %6 = load i32, ptr %5, align 8
  %7 = icmp eq i32 %4, %6
  %. = zext i1 %7 to i32
  ret i32 %.
}